; ModuleID = '31/1991.c'
source_filename = "31/1991.c"
target datalayout = "e-m:e-p270:32:32-p271:32:32-p272:64:64-i64:64-f80:128-n8:16:32:64-S128"
target triple = "x86_64-pc-linux-gnu"

%struct.student = type { [100 x i8], %struct.student* }

@.str = private unnamed_addr constant [4 x i8] c"%s\0A\00", align 1

; Function Attrs: noinline nounwind uwtable
define dso_local i32 @main() #0 {
  %1 = alloca i32, align 4
  %2 = alloca i32, align 4
  %3 = alloca %struct.student*, align 8
  %4 = alloca %struct.student*, align 8
  %5 = alloca %struct.student*, align 8
  %6 = alloca %struct.student*, align 8
  store i32 0, i32* %1, align 4
  %7 = call noalias i8* @malloc(i64 112) #3
  %8 = bitcast i8* %7 to %struct.student*
  store %struct.student* %8, %struct.student** %4, align 8
  store %struct.student* %8, %struct.student** %3, align 8
  %9 = load %struct.student*, %struct.student** %3, align 8
  %10 = getelementptr inbounds %struct.student, %struct.student* %9, i32 0, i32 0
  %11 = getelementptr inbounds [100 x i8], [100 x i8]* %10, i64 0, i64 0
  %12 = call i32 (i8*, ...) bitcast (i32 (...)* @gets to i32 (i8*, ...)*)(i8* %11)
  %13 = load %struct.student*, %struct.student** %3, align 8
  %14 = getelementptr inbounds %struct.student, %struct.student* %13, i32 0, i32 1
  store %struct.student* null, %struct.student** %14, align 8
  store i32 1, i32* %2, align 4
  br label %15

15:                                               ; preds = %37, %0
  %16 = call noalias i8* @malloc(i64 112) #3
  %17 = bitcast i8* %16 to %struct.student*
  store %struct.student* %17, %struct.student** %3, align 8
  %18 = load %struct.student*, %struct.student** %4, align 8
  %19 = load %struct.student*, %struct.student** %3, align 8
  %20 = getelementptr inbounds %struct.student, %struct.student* %19, i32 0, i32 1
  store %struct.student* %18, %struct.student** %20, align 8
  %21 = load %struct.student*, %struct.student** %3, align 8
  store %struct.student* %21, %struct.student** %4, align 8
  %22 = load %struct.student*, %struct.student** %3, align 8
  %23 = getelementptr inbounds %struct.student, %struct.student* %22, i32 0, i32 0
  %24 = getelementptr inbounds [100 x i8], [100 x i8]* %23, i64 0, i64 0
  %25 = call i32 (i8*, ...) bitcast (i32 (...)* @gets to i32 (i8*, ...)*)(i8* %24)
  %26 = load %struct.student*, %struct.student** %3, align 8
  %27 = getelementptr inbounds %struct.student, %struct.student* %26, i32 0, i32 0
  %28 = getelementptr inbounds [100 x i8], [100 x i8]* %27, i64 0, i64 0
  %29 = load i8, i8* %28, align 8
  %30 = sext i8 %29 to i32
  %31 = icmp eq i32 %30, 101
  br i1 %31, label %32, label %36

32:                                               ; preds = %15
  %33 = load %struct.student*, %struct.student** %3, align 8
  %34 = getelementptr inbounds %struct.student, %struct.student* %33, i32 0, i32 1
  %35 = load %struct.student*, %struct.student** %34, align 8
  store %struct.student* %35, %struct.student** %5, align 8
  br label %40

36:                                               ; preds = %15
  br label %37

37:                                               ; preds = %36
  %38 = load i32, i32* %2, align 4
  %39 = add nsw i32 %38, 1
  store i32 %39, i32* %2, align 4
  br label %15

40:                                               ; preds = %32
  %41 = load %struct.student*, %struct.student** %5, align 8
  store %struct.student* %41, %struct.student** %6, align 8
  store i32 1, i32* %2, align 4
  br label %42

42:                                               ; preds = %54, %40
  %43 = load %struct.student*, %struct.student** %6, align 8
  %44 = getelementptr inbounds %struct.student, %struct.student* %43, i32 0, i32 0
  %45 = getelementptr inbounds [100 x i8], [100 x i8]* %44, i64 0, i64 0
  %46 = call i32 (i8*, ...) @printf(i8* getelementptr inbounds ([4 x i8], [4 x i8]* @.str, i64 0, i64 0), i8* %45)
  %47 = load %struct.student*, %struct.student** %6, align 8
  %48 = getelementptr inbounds %struct.student, %struct.student* %47, i32 0, i32 1
  %49 = load %struct.student*, %struct.student** %48, align 8
  store %struct.student* %49, %struct.student** %6, align 8
  %50 = load %struct.student*, %struct.student** %6, align 8
  %51 = icmp eq %struct.student* %50, null
  br i1 %51, label %52, label %53

52:                                               ; preds = %42
  br label %57

53:                                               ; preds = %42
  br label %54

54:                                               ; preds = %53
  %55 = load i32, i32* %2, align 4
  %56 = add nsw i32 %55, 1
  store i32 %56, i32* %2, align 4
  br label %42

57:                                               ; preds = %52
  ret i32 0
}

; Function Attrs: nounwind
declare dso_local noalias i8* @malloc(i64) #1

declare dso_local i32 @gets(...) #2

declare dso_local i32 @printf(i8*, ...) #2


!llvm.module.flags = !{!0}
!llvm.ident = !{!1}

!0 = !{i32 1, !"wchar_size", i32 4}
!1 = !{!"clang version 10.0.0-4ubuntu1 "}
