; ModuleID = 'source-C-CXX/30/1991.c'
source_filename = "source-C-CXX/30/1991.c"
target datalayout = "e-m:e-p270:32:32-p271:32:32-p272:64:64-i64:64-f80:128-n8:16:32:64-S128"
target triple = "x86_64-pc-linux-gnu"

%struct.student = type { [100 x i8], %struct.student* }

; Function Attrs: nounwind sspstrong uwtable
define dso_local i32 @main() local_unnamed_addr #0 {
  %1 = tail call noalias align 16 dereferenceable_or_null(112) i8* @malloc(i64 112) #4
  %2 = bitcast i8* %1 to %struct.student*
  %3 = getelementptr inbounds %struct.student, %struct.student* %2, i64 0, i32 0, i64 0
  %4 = tail call i32 (i8*, ...) bitcast (i32 (...)* @gets to i32 (i8*, ...)*)(i8* %3) #4
  %5 = getelementptr inbounds %struct.student, %struct.student* %2, i64 0, i32 1
  store %struct.student* null, %struct.student** %5, align 8, !tbaa !5
  br label %6

6:                                                ; preds = %6, %0
  %7 = phi %struct.student* [ %2, %0 ], [ %9, %6 ]
  %8 = tail call noalias align 16 dereferenceable_or_null(112) i8* @malloc(i64 112) #4
  %9 = bitcast i8* %8 to %struct.student*
  %10 = getelementptr inbounds %struct.student, %struct.student* %9, i64 0, i32 1
  store %struct.student* %7, %struct.student** %10, align 8, !tbaa !5
  %11 = getelementptr inbounds %struct.student, %struct.student* %9, i64 0, i32 0, i64 0
  %12 = tail call i32 (i8*, ...) bitcast (i32 (...)* @gets to i32 (i8*, ...)*)(i8* %11) #4
  %13 = load i8, i8* %11, align 16, !tbaa !10
  %14 = icmp eq i8 %13, 101
  br i1 %14, label %15, label %6

15:                                               ; preds = %6
  %16 = bitcast i8* %8 to %struct.student*
  %17 = getelementptr inbounds %struct.student, %struct.student* %16, i64 0, i32 1
  %18 = load %struct.student*, %struct.student** %17, align 8, !tbaa !5
  br label %19

19:                                               ; preds = %19, %15
  %20 = phi %struct.student* [ %18, %15 ], [ %24, %19 ]
  %21 = getelementptr inbounds %struct.student, %struct.student* %20, i64 0, i32 0, i64 0
  %22 = tail call i32 @puts(i8* nonnull dereferenceable(1) %21)
  %23 = getelementptr inbounds %struct.student, %struct.student* %20, i64 0, i32 1
  %24 = load %struct.student*, %struct.student** %23, align 8, !tbaa !5
  %25 = icmp eq %struct.student* %24, null
  br i1 %25, label %26, label %19

26:                                               ; preds = %19
  ret i32 0
}

; Function Attrs: inaccessiblememonly mustprogress nofree nounwind willreturn
declare noalias noundef align 16 i8* @malloc(i64 noundef) local_unnamed_addr #1

declare i32 @gets(...) local_unnamed_addr #2

; Function Attrs: nofree nounwind
declare noundef i32 @puts(i8* nocapture noundef readonly) local_unnamed_addr #3


!llvm.module.flags = !{!0, !1, !2, !3}
!llvm.ident = !{!4}

!0 = !{i32 1, !"wchar_size", i32 4}
!1 = !{i32 7, !"PIC Level", i32 2}
!2 = !{i32 7, !"PIE Level", i32 2}
!3 = !{i32 7, !"uwtable", i32 1}
!4 = !{!"clang version 13.0.0"}
!5 = !{!6, !9, i64 104}
!6 = !{!"student", !7, i64 0, !9, i64 104}
!7 = !{!"omnipotent char", !8, i64 0}
!8 = !{!"Simple C/C++ TBAA"}
!9 = !{!"any pointer", !7, i64 0}
!10 = !{!7, !7, i64 0}
